; Function Attrs: inlinehint mustprogress nounwind uwtable
define internal void @_ZN12_GLOBAL__N_19data_typeD2Ev(ptr noundef nonnull align 8 dereferenceable(360) %0) unnamed_addr #4 align 2 personality ptr @__gxx_personality_v0 {
  %2 = getelementptr inbounds nuw i8, ptr %0, i64 48
  tail call void @_ZN5boost12shared_mutexD2Ev(ptr noundef nonnull align 8 dereferenceable(312) %2) #24
  %3 = getelementptr inbounds i8, ptr %0, i64 16
  %4 = load ptr, ptr %3, align 8, !tbaa !36
  invoke void @_ZNSt8_Rb_treeISt6vectorIPKSt9type_infoSaIS3_EESt4pairIKS5_PFvvEESt10_Select1stISA_ESt4lessIS5_ESaISA_EE8_M_eraseEPSt13_Rb_tree_nodeISA_E(ptr noundef nonnull align 8 dereferenceable(48) %0, ptr noundef %4)
          to label %_ZNSt3mapISt6vectorIPKSt9type_infoSaIS3_EEPFvvESt4lessIS5_ESaISt4pairIKS5_S7_EEED2Ev.exit unwind label %5

5:                                                ; preds = %1
  %6 = landingpad { ptr, i32 }
          catch ptr null
  %7 = extractvalue { ptr, i32 } %6, 0
  tail call void @__clang_call_terminate(ptr %7) #26
  unreachable

_ZNSt3mapISt6vectorIPKSt9type_infoSaIS3_EEPFvvESt4lessIS5_ESaISt4pairIKS5_S7_EEED2Ev.exit: ; preds = %1
  ret void
}